target datalayout = "e-m:e-p270:32:32-p271:32:32-p272:64:64-i64:64-i128:128-f80:128-n8:16:32:64-S128"
target triple = "x86_64-pc-linux-gnu"

%"struct.gmx::DensityFittingForceProviderState" = type { i64, %"struct.gmx::ExponentialMovingAverageState", float }
%"struct.gmx::ExponentialMovingAverageState" = type <{ float, float, i8, [3 x i8] }>

; Function Attrs: mustprogress uwtable
define linkonce_odr void @_Z8block_bcIN3gmx29ExponentialMovingAverageStateEEvP10tmpi_comm_RT_(ptr noundef %0, ptr noundef nonnull align 4 dereferenceable(9) %1) #0 comdat {
  %3 = alloca ptr, align 8
  %4 = alloca ptr, align 8
  store ptr %0, ptr %3, align 8, !tbaa !240
  store ptr %1, ptr %4, align 8, !tbaa !242
  %5 = load ptr, ptr %4, align 8, !tbaa !242
  %6 = load ptr, ptr %3, align 8, !tbaa !240
  call void @_Z9gmx_bcastmPvP10tmpi_comm_(i64 noundef 12, ptr noundef %5, ptr noundef %6)
  ret void
}

; Function Attrs: mustprogress uwtable
define linkonce_odr void @_Z8block_bcIfEvP10tmpi_comm_RT_(ptr noundef %0, ptr noundef nonnull align 4 dereferenceable(4) %1) #0 comdat {
  %3 = alloca ptr, align 8
  %4 = alloca ptr, align 8
  store ptr %0, ptr %3, align 8, !tbaa !240
  store ptr %1, ptr %4, align 8, !tbaa !223
  %5 = load ptr, ptr %4, align 8, !tbaa !223
  %6 = load ptr, ptr %3, align 8, !tbaa !240
  call void @_Z9gmx_bcastmPvP10tmpi_comm_(i64 noundef 4, ptr noundef %5, ptr noundef %6)
  ret void
}

; Function Attrs: mustprogress uwtable
define linkonce_odr void @_Z8block_bcIlEvP10tmpi_comm_RT_(ptr noundef %0, ptr noundef nonnull align 8 dereferenceable(8) %1) #0 comdat {
  %3 = alloca ptr, align 8
  %4 = alloca ptr, align 8
  store ptr %0, ptr %3, align 8, !tbaa !240
  store ptr %1, ptr %4, align 8, !tbaa !97
  %5 = load ptr, ptr %4, align 8, !tbaa !97
  %6 = load ptr, ptr %3, align 8, !tbaa !240
  call void @_Z9gmx_bcastmPvP10tmpi_comm_(i64 noundef 8, ptr noundef %5, ptr noundef %6)
  ret void
}

; Function Attrs: mustprogress uwtable
define void @_ZN3gmx32DensityFittingForceProviderState14broadcastStateEP10tmpi_comm_b(ptr noundef nonnull align 8 dereferenceable(24) %0, ptr noundef %1, i1 noundef zeroext %2) #0 align 2 {
  %4 = alloca ptr, align 8
  %5 = alloca ptr, align 8
  %6 = alloca i8, align 1
  store ptr %0, ptr %4, align 8, !tbaa !38
  store ptr %1, ptr %5, align 8, !tbaa !240
  %7 = zext i1 %2 to i8
  store i8 %7, ptr %6, align 1, !tbaa !69
  %8 = load ptr, ptr %4, align 8
  %9 = load i8, ptr %6, align 1, !tbaa !69, !range !110, !noundef !111
  %10 = trunc i8 %9 to i1
  br i1 %10, label %11, label %18

11:                                               ; preds = %3
  %12 = load ptr, ptr %5, align 8, !tbaa !240
  %13 = getelementptr inbounds nuw %"struct.gmx::DensityFittingForceProviderState", ptr %8, i32 0, i32 0
  call void @_Z8block_bcIlEvP10tmpi_comm_RT_(ptr noundef %12, ptr noundef nonnull align 8 dereferenceable(8) %13)
  %14 = load ptr, ptr %5, align 8, !tbaa !240
  %15 = getelementptr inbounds nuw %"struct.gmx::DensityFittingForceProviderState", ptr %8, i32 0, i32 2
  call void @_Z8block_bcIfEvP10tmpi_comm_RT_(ptr noundef %14, ptr noundef nonnull align 4 dereferenceable(4) %15)
  %16 = load ptr, ptr %5, align 8, !tbaa !240
  %17 = getelementptr inbounds nuw %"struct.gmx::DensityFittingForceProviderState", ptr %8, i32 0, i32 1
  call void @_Z8block_bcIN3gmx29ExponentialMovingAverageStateEEvP10tmpi_comm_RT_(ptr noundef %16, ptr noundef nonnull align 4 dereferenceable(9) %17)
  br label %18

18:                                               ; preds = %11, %3
  ret void
}