; Function Attrs: mustprogress uwtable
define void @_ZN3gmx32DensityFittingForceProviderState14broadcastStateEP10tmpi_comm_b(ptr noundef nonnull align 8 dereferenceable(24) %0, ptr noundef %1, i1 noundef zeroext %2) local_unnamed_addr #0 align 2 {
  br i1 %2, label %4, label %7

4:                                                ; preds = %3
  tail call void @_Z9gmx_bcastmPvP10tmpi_comm_(i64 noundef 8, ptr noundef nonnull align 8 dereferenceable(8) %0, ptr noundef %1)
  %5 = getelementptr inbounds nuw i8, ptr %0, i64 20
  tail call void @_Z9gmx_bcastmPvP10tmpi_comm_(i64 noundef 4, ptr noundef nonnull align 4 dereferenceable(4) %5, ptr noundef %1)
  %6 = getelementptr inbounds nuw i8, ptr %0, i64 8
  tail call void @_Z9gmx_bcastmPvP10tmpi_comm_(i64 noundef 12, ptr noundef nonnull align 4 dereferenceable(9) %6, ptr noundef %1)
  br label %7

7:                                                ; preds = %4, %3
  ret void
}